	.file	"test.cpp"
	.intel_syntax noprefix
	.text
	.section	.rodata
	.type	_ZStL19piecewise_construct, @object
	.size	_ZStL19piecewise_construct, 1
_ZStL19piecewise_construct:
	.zero	1
	.local	_ZStL8__ioinit
	.comm	_ZStL8__ioinit,1,1
.LC0:
	.string	"no is 1"
.LC1:
	.string	"no is 2"
.LC2:
	.string	"no is 3"
.LC3:
	.string	"no is 4"
	.text
	.globl	main
	.type	main, @function
main:
.LFB1493:
	.cfi_startproc
	push	rbp
	.cfi_def_cfa_offset 16
	.cfi_offset 6, -16
	mov	rbp, rsp
	.cfi_def_cfa_register 6
	sub	rsp, 16
	mov	DWORD PTR -4[rbp], 4
	cmp	DWORD PTR -4[rbp], 1
	jne	.L2
	lea	rdi, .LC0[rip]
	mov	eax, 0
	call	printf@PLT
	jmp	.L3
.L2:
	cmp	DWORD PTR -4[rbp], 2
	jne	.L4
	lea	rdi, .LC1[rip]
	mov	eax, 0
	call	printf@PLT
	jmp	.L3
.L4:
	cmp	DWORD PTR -4[rbp], 3
	jne	.L5
	lea	rdi, .LC2[rip]
	mov	eax, 0
	call	printf@PLT
	jmp	.L3
.L5:
	cmp	DWORD PTR -4[rbp], 4
	jne	.L3
	lea	rdi, .LC3[rip]
	mov	eax, 0
	call	printf@PLT
.L3:
	mov	eax, 0
	leave
	.cfi_def_cfa 7, 8
	ret
	.cfi_endproc
.LFE1493:
	.size	main, .-main
	.type	_Z41__static_initialization_and_destruction_0ii, @function
_Z41__static_initialization_and_destruction_0ii:
.LFB1974:
	.cfi_startproc
	push	rbp
	.cfi_def_cfa_offset 16
	.cfi_offset 6, -16
	mov	rbp, rsp
	.cfi_def_cfa_register 6
	sub	rsp, 16
	mov	DWORD PTR -4[rbp], edi
	mov	DWORD PTR -8[rbp], esi
	cmp	DWORD PTR -4[rbp], 1
	jne	.L9
	cmp	DWORD PTR -8[rbp], 65535
	jne	.L9
	lea	rdi, _ZStL8__ioinit[rip]
	call	_ZNSt8ios_base4InitC1Ev@PLT
	lea	rdx, __dso_handle[rip]
	lea	rsi, _ZStL8__ioinit[rip]
	mov	rax, QWORD PTR _ZNSt8ios_base4InitD1Ev@GOTPCREL[rip]
	mov	rdi, rax
	call	__cxa_atexit@PLT
.L9:
	nop
	leave
	.cfi_def_cfa 7, 8
	ret
	.cfi_endproc
.LFE1974:
	.size	_Z41__static_initialization_and_destruction_0ii, .-_Z41__static_initialization_and_destruction_0ii
	.type	_GLOBAL__sub_I_main, @function
_GLOBAL__sub_I_main:
.LFB1975:
	.cfi_startproc
	push	rbp
	.cfi_def_cfa_offset 16
	.cfi_offset 6, -16
	mov	rbp, rsp
	.cfi_def_cfa_register 6
	mov	esi, 65535
	mov	edi, 1
	call	_Z41__static_initialization_and_destruction_0ii
	pop	rbp
	.cfi_def_cfa 7, 8
	ret
	.cfi_endproc
.LFE1975:
	.size	_GLOBAL__sub_I_main, .-_GLOBAL__sub_I_main
	.section	.init_array,"aw"
	.align 8
	.quad	_GLOBAL__sub_I_main
	.hidden	__dso_handle
	.ident	"GCC: (Ubuntu 7.5.0-3ubuntu1~18.04) 7.5.0"
	.section	.note.GNU-stack,"",@progbits
